; Function Attrs: nounwind uwtable
define noalias nonnull ptr @l___private_Lean_Elab_Tactic_BVDecide_LRAT_Trim_0__Lean_Elab_Tactic_BVDecide_LRAT_trim_M_idIndex___boxed(ptr noundef %0, ptr noundef %1, ptr noundef %2) local_unnamed_addr #0 {
  %4 = getelementptr inbounds nuw i8, ptr %1, i64 16
  %5 = load ptr, ptr %4, align 8, !tbaa !13
  %6 = ptrtoint ptr %0 to i64
  %7 = and i64 %6, 1
  %.not.i9 = icmp eq i64 %7, 0
  br i1 %.not.i9, label %.critedge.i.i, label %8, !prof !8

8:                                                ; preds = %3
  %9 = ptrtoint ptr %5 to i64
  %10 = and i64 %9, 1
  %.not8.i = icmp eq i64 %10, 0
  br i1 %.not8.i, label %.critedge.i.i, label %11, !prof !8

11:                                               ; preds = %8
  %12 = lshr i64 %6, 1
  %13 = lshr i64 %9, 1
  %14 = icmp samesign ult i64 %12, %13
  br i1 %14, label %lean_nat_sub.exit.i, label %15

15:                                               ; preds = %11
  %16 = sub nuw nsw i64 %12, %13
  %17 = shl nuw i64 %16, 1
  %18 = or disjoint i64 %17, 1
  %19 = inttoptr i64 %18 to ptr
  br label %lean_nat_sub.exit.i

.critedge.i.i:                                    ; preds = %8, %3
  %20 = tail call ptr @lean_nat_big_sub(ptr noundef %0, ptr noundef %5) #3
  br label %lean_nat_sub.exit.i

lean_nat_sub.exit.i:                              ; preds = %.critedge.i.i, %15, %11
  %.1.i.i = phi ptr [ %20, %.critedge.i.i ], [ %19, %15 ], [ inttoptr (i64 1 to ptr), %11 ]
  tail call void @lean_inc_heartbeat() #3
  %21 = tail call noalias ptr @mi_malloc_small(i64 noundef 24) #3
  %22 = icmp eq ptr %21, null
  br i1 %22, label %23, label %l___private_Lean_Elab_Tactic_BVDecide_LRAT_Trim_0__Lean_Elab_Tactic_BVDecide_LRAT_trim_M_idIndex.exit

23:                                               ; preds = %lean_nat_sub.exit.i
  tail call void @lean_internal_panic_out_of_memory() #4
  unreachable

l___private_Lean_Elab_Tactic_BVDecide_LRAT_Trim_0__Lean_Elab_Tactic_BVDecide_LRAT_trim_M_idIndex.exit: ; preds = %lean_nat_sub.exit.i
  %24 = getelementptr inbounds nuw i8, ptr %21, i64 4
  store i32 1, ptr %21, align 4, !tbaa !9
  store i32 131096, ptr %24, align 4
  %25 = getelementptr inbounds nuw i8, ptr %21, i64 8
  store ptr %.1.i.i, ptr %25, align 8, !tbaa !13
  %26 = getelementptr inbounds nuw i8, ptr %21, i64 16
  store ptr %2, ptr %26, align 8, !tbaa !13
  %27 = ptrtoint ptr %1 to i64
  %28 = and i64 %27, 1
  %.not = icmp eq i64 %28, 0
  br i1 %.not, label %29, label %lean_dec.exit6

29:                                               ; preds = %l___private_Lean_Elab_Tactic_BVDecide_LRAT_Trim_0__Lean_Elab_Tactic_BVDecide_LRAT_trim_M_idIndex.exit
  %30 = load i32, ptr %1, align 4, !tbaa !9
  %31 = icmp sgt i32 %30, 1
  br i1 %31, label %32, label %34, !prof !12

32:                                               ; preds = %29
  %33 = add nsw i32 %30, -1
  store i32 %33, ptr %1, align 4, !tbaa !9
  br label %lean_dec.exit6

34:                                               ; preds = %29
  %.not.i = icmp eq i32 %30, 0
  br i1 %.not.i, label %lean_dec.exit6, label %35

35:                                               ; preds = %34
  tail call void @lean_dec_ref_cold(ptr noundef nonnull %1) #3
  br label %lean_dec.exit6

lean_dec.exit6:                                   ; preds = %35, %34, %32, %l___private_Lean_Elab_Tactic_BVDecide_LRAT_Trim_0__Lean_Elab_Tactic_BVDecide_LRAT_trim_M_idIndex.exit
  br i1 %.not.i9, label %36, label %lean_dec.exit

36:                                               ; preds = %lean_dec.exit6
  %37 = load i32, ptr %0, align 4, !tbaa !9
  %38 = icmp sgt i32 %37, 1
  br i1 %38, label %39, label %41, !prof !12

39:                                               ; preds = %36
  %40 = add nsw i32 %37, -1
  store i32 %40, ptr %0, align 4, !tbaa !9
  br label %lean_dec.exit

41:                                               ; preds = %36
  %.not.i7 = icmp eq i32 %37, 0
  br i1 %.not.i7, label %lean_dec.exit, label %42

42:                                               ; preds = %41
  tail call void @lean_dec_ref_cold(ptr noundef nonnull %0) #3
  br label %lean_dec.exit

lean_dec.exit:                                    ; preds = %42, %41, %39, %lean_dec.exit6
  ret ptr %21
}